; Function Attrs: nounwind uwtable
define zeroext range(i8 0, 2) i8 @l_Std_DHashMap_Internal_AssocList_contains___at_Lean_Compiler_LCNF_FloatLetIn_initialNewArms___spec__1(ptr noundef %0, ptr noundef %1) local_unnamed_addr #1 {
  %3 = ptrtoint ptr %0 to i64
  %4 = and i64 %3, 1
  %.not.i31.i = icmp eq i64 %4, 0
  %5 = lshr i64 %3, 1
  %6 = trunc i64 %5 to i32
  %7 = getelementptr i8, ptr %0, i64 4
  %8 = getelementptr inbounds nuw i8, ptr %0, i64 8
  br label %.critedge

.critedge:                                        ; preds = %.critedge.backedge, %2
  %.011 = phi ptr [ %1, %2 ], [ %22, %.critedge.backedge ]
  %9 = ptrtoint ptr %.011 to i64
  %10 = and i64 %9, 1
  %.not.i = icmp eq i64 %10, 0
  br i1 %.not.i, label %14, label %11

11:                                               ; preds = %.critedge
  %12 = lshr i64 %9, 1
  %13 = trunc i64 %12 to i32
  br label %lean_obj_tag.exit

14:                                               ; preds = %.critedge
  %15 = getelementptr i8, ptr %.011, i64 4
  %.val.i = load i32, ptr %15, align 4
  %16 = lshr i32 %.val.i, 24
  br label %lean_obj_tag.exit

lean_obj_tag.exit:                                ; preds = %11, %14
  %.0.i = phi i32 [ %13, %11 ], [ %16, %14 ]
  %17 = icmp eq i32 %.0.i, 0
  br i1 %17, label %50, label %18

18:                                               ; preds = %lean_obj_tag.exit
  %19 = getelementptr inbounds nuw i8, ptr %.011, i64 8
  %20 = load ptr, ptr %19, align 8, !tbaa !4
  %21 = getelementptr inbounds nuw i8, ptr %.011, i64 24
  %22 = load ptr, ptr %21, align 8, !tbaa !4
  %23 = ptrtoint ptr %20 to i64
  %24 = and i64 %23, 1
  %.not.i.i = icmp eq i64 %24, 0
  br i1 %.not.i.i, label %28, label %25

25:                                               ; preds = %18
  %26 = lshr i64 %23, 1
  %27 = trunc i64 %26 to i32
  br label %lean_obj_tag.exit.i

28:                                               ; preds = %18
  %29 = getelementptr i8, ptr %20, i64 4
  %.val.i.i = load i32, ptr %29, align 4
  %30 = lshr i32 %.val.i.i, 24
  br label %lean_obj_tag.exit.i

lean_obj_tag.exit.i:                              ; preds = %28, %25
  %.0.i.i = phi i32 [ %27, %25 ], [ %30, %28 ]
  switch i32 %.0.i.i, label %47 [
    i32 0, label %31
    i32 1, label %41
    i32 2, label %44
  ]

31:                                               ; preds = %lean_obj_tag.exit.i
  br i1 %.not.i31.i, label %32, label %lean_obj_tag.exit22.i

32:                                               ; preds = %31
  %.val.i21.i = load i32, ptr %7, align 4
  %33 = lshr i32 %.val.i21.i, 24
  br label %lean_obj_tag.exit22.i

lean_obj_tag.exit22.i:                            ; preds = %31, %32
  %.0.i20.i = phi i32 [ %33, %32 ], [ %6, %31 ]
  %34 = icmp eq i32 %.0.i20.i, 0
  br i1 %34, label %35, label %.critedge.backedge

35:                                               ; preds = %lean_obj_tag.exit22.i
  %36 = getelementptr inbounds nuw i8, ptr %20, i64 8
  %37 = load ptr, ptr %36, align 8, !tbaa !4
  %38 = load ptr, ptr %8, align 8, !tbaa !4
  %39 = tail call zeroext i8 @lean_name_eq(ptr noundef %37, ptr noundef %38) #4
  %40 = icmp eq i8 %39, 0
  br i1 %40, label %.critedge.backedge, label %50

41:                                               ; preds = %lean_obj_tag.exit.i
  br i1 %.not.i31.i, label %42, label %lean_obj_tag.exit26.i

42:                                               ; preds = %41
  %.val.i25.i = load i32, ptr %7, align 4
  %43 = lshr i32 %.val.i25.i, 24
  br label %lean_obj_tag.exit26.i

lean_obj_tag.exit26.i:                            ; preds = %41, %42
  %.0.i24.i = phi i32 [ %43, %42 ], [ %6, %41 ]
  %.not14 = icmp eq i32 %.0.i24.i, 1
  br i1 %.not14, label %50, label %.critedge.backedge

44:                                               ; preds = %lean_obj_tag.exit.i
  br i1 %.not.i31.i, label %45, label %lean_obj_tag.exit30.i

45:                                               ; preds = %44
  %.val.i29.i = load i32, ptr %7, align 4
  %46 = lshr i32 %.val.i29.i, 24
  br label %lean_obj_tag.exit30.i

lean_obj_tag.exit30.i:                            ; preds = %44, %45
  %.0.i28.i = phi i32 [ %46, %45 ], [ %6, %44 ]
  %.not = icmp eq i32 %.0.i28.i, 2
  br i1 %.not, label %50, label %.critedge.backedge

.critedge.backedge:                               ; preds = %lean_obj_tag.exit30.i, %lean_obj_tag.exit26.i, %35, %l_Lean_Compiler_LCNF_FloatLetIn_beqDecision____x40_Lean_Compiler_LCNF_FloatLetIn___hyg_63_.exit, %lean_obj_tag.exit22.i
  br label %.critedge

47:                                               ; preds = %lean_obj_tag.exit.i
  br i1 %.not.i31.i, label %48, label %l_Lean_Compiler_LCNF_FloatLetIn_beqDecision____x40_Lean_Compiler_LCNF_FloatLetIn___hyg_63_.exit

48:                                               ; preds = %47
  %.val.i33.i = load i32, ptr %7, align 4
  %49 = lshr i32 %.val.i33.i, 24
  br label %l_Lean_Compiler_LCNF_FloatLetIn_beqDecision____x40_Lean_Compiler_LCNF_FloatLetIn___hyg_63_.exit

l_Lean_Compiler_LCNF_FloatLetIn_beqDecision____x40_Lean_Compiler_LCNF_FloatLetIn___hyg_63_.exit: ; preds = %48, %47
  %.0.i32.i = phi i32 [ %49, %48 ], [ %6, %47 ]
  %.not15 = icmp eq i32 %.0.i32.i, 3
  br i1 %.not15, label %50, label %.critedge.backedge

50:                                               ; preds = %lean_obj_tag.exit30.i, %lean_obj_tag.exit26.i, %35, %l_Lean_Compiler_LCNF_FloatLetIn_beqDecision____x40_Lean_Compiler_LCNF_FloatLetIn___hyg_63_.exit, %lean_obj_tag.exit
  %.1 = phi i8 [ 1, %l_Lean_Compiler_LCNF_FloatLetIn_beqDecision____x40_Lean_Compiler_LCNF_FloatLetIn___hyg_63_.exit ], [ 0, %lean_obj_tag.exit ], [ 1, %35 ], [ 1, %lean_obj_tag.exit26.i ], [ 1, %lean_obj_tag.exit30.i ]
  ret i8 %.1
}